(dp0
S'BobHallstrom'
p1
I1
sS'AndreyBarrientosCostaRica'
p2
I6
sS'BlindPilot'
p3
I4
sS'Angus'
p4
I0
sS'Bahoke'
p5
I9
sS'Blenderkitty'
p6
I3
sS'AslakKnutsen'
p7
I8
sS'Aaron'
p8
I2
sS'Bradders'
p9
I7
sS'AlexanderHenningDrachmann'
p10
I10
sS'Anniepoo'
p11
I5
s.